; Function Attrs: nounwind uwtable
define internal noundef ptr @gc_set_threshold(ptr readnone captures(none) %0, ptr noundef %1) #0 {
  %3 = alloca i32, align 4
  %4 = alloca i32, align 4
  %5 = alloca i32, align 4
  call void @llvm.lifetime.start.p0(i64 4, ptr nonnull %3) #5
  call void @llvm.lifetime.start.p0(i64 4, ptr nonnull %4) #5
  store i32 0, ptr %4, align 4, !tbaa !28
  call void @llvm.lifetime.start.p0(i64 4, ptr nonnull %5) #5
  store i32 0, ptr %5, align 4, !tbaa !28
  %6 = getelementptr i8, ptr %1, i64 16
  %.val = load i64, ptr %6, align 8, !tbaa !29
  switch i64 %.val, label %21 [
    i64 1, label %7
    i64 2, label %9
    i64 3, label %19
  ]

7:                                                ; preds = %2
  %8 = call i32 (ptr, ptr, ...) @PyArg_ParseTuple(ptr noundef nonnull %1, ptr noundef nonnull @.str.21, ptr noundef nonnull %3) #5
  %.not10 = icmp eq i32 %8, 0
  br i1 %.not10, label %gc_set_threshold_impl.exit, label %.thread15

9:                                                ; preds = %2
  %10 = call i32 (ptr, ptr, ...) @PyArg_ParseTuple(ptr noundef nonnull %1, ptr noundef nonnull @.str.22, ptr noundef nonnull %3, ptr noundef nonnull %4) #5
  %.not9 = icmp eq i32 %10, 0
  br i1 %.not9, label %gc_set_threshold_impl.exit, label %.thread17

.thread17:                                        ; preds = %9
  %11 = load i32, ptr %3, align 4, !tbaa !28
  %12 = load i32, ptr %4, align 4, !tbaa !28
  %13 = call align 8 ptr @llvm.threadlocal.address.p0(ptr align 8 @_Py_tss_tstate)
  %14 = load ptr, ptr %13, align 8, !tbaa !4
  %15 = getelementptr inbounds nuw i8, ptr %14, i64 16
  %16 = load ptr, ptr %15, align 8, !tbaa !9
  %17 = getelementptr inbounds nuw i8, ptr %16, i64 7440
  store i32 %11, ptr %17, align 8, !tbaa !33
  %18 = getelementptr inbounds nuw i8, ptr %16, i64 7464
  store i32 %12, ptr %18, align 8, !tbaa !34
  br label %gc_set_threshold_impl.exit

19:                                               ; preds = %2
  %20 = call i32 (ptr, ptr, ...) @PyArg_ParseTuple(ptr noundef nonnull %1, ptr noundef nonnull @.str.23, ptr noundef nonnull %3, ptr noundef nonnull %4, ptr noundef nonnull %5) #5
  %.not = icmp eq i32 %20, 0
  br i1 %.not, label %gc_set_threshold_impl.exit, label %29

21:                                               ; preds = %2
  %22 = load ptr, ptr @PyExc_TypeError, align 8, !tbaa !35
  tail call void @PyErr_SetString(ptr noundef %22, ptr noundef nonnull @.str.24) #5
  br label %gc_set_threshold_impl.exit

.thread15:                                        ; preds = %7
  %23 = load i32, ptr %3, align 4, !tbaa !28
  %24 = call align 8 ptr @llvm.threadlocal.address.p0(ptr align 8 @_Py_tss_tstate)
  %25 = load ptr, ptr %24, align 8, !tbaa !4
  %26 = getelementptr inbounds nuw i8, ptr %25, i64 16
  %27 = load ptr, ptr %26, align 8, !tbaa !9
  %28 = getelementptr inbounds nuw i8, ptr %27, i64 7440
  store i32 %23, ptr %28, align 8, !tbaa !33
  br label %gc_set_threshold_impl.exit

29:                                               ; preds = %19
  %.pre = load i32, ptr %5, align 4, !tbaa !28
  %30 = load i32, ptr %3, align 4, !tbaa !28
  %31 = load i32, ptr %4, align 4, !tbaa !28
  %32 = call align 8 ptr @llvm.threadlocal.address.p0(ptr align 8 @_Py_tss_tstate)
  %33 = load ptr, ptr %32, align 8, !tbaa !4
  %34 = getelementptr inbounds nuw i8, ptr %33, i64 16
  %35 = load ptr, ptr %34, align 8, !tbaa !9
  %36 = getelementptr inbounds nuw i8, ptr %35, i64 7440
  store i32 %30, ptr %36, align 8, !tbaa !33
  %37 = getelementptr inbounds nuw i8, ptr %35, i64 7464
  store i32 %31, ptr %37, align 8, !tbaa !34
  %38 = getelementptr i8, ptr %35, i64 7488
  store i32 %.pre, ptr %38, align 8, !tbaa !34
  br label %gc_set_threshold_impl.exit

gc_set_threshold_impl.exit:                       ; preds = %.thread17, %.thread15, %29, %19, %9, %7, %21
  %.08 = phi ptr [ null, %21 ], [ null, %19 ], [ null, %9 ], [ null, %7 ], [ @_Py_NoneStruct, %29 ], [ @_Py_NoneStruct, %.thread15 ], [ @_Py_NoneStruct, %.thread17 ]
  call void @llvm.lifetime.end.p0(i64 4, ptr nonnull %5) #5
  call void @llvm.lifetime.end.p0(i64 4, ptr nonnull %4) #5
  call void @llvm.lifetime.end.p0(i64 4, ptr nonnull %3) #5
  ret ptr %.08
}